; Function Attrs: mustprogress uwtable
define noundef i32 @_ZNK5draco24MeshAttributeCornerTable16ConfidentValenceENS_9IndexTypeIjNS_21VertexIndex_tag_type_EEE(ptr noundef nonnull align 8 dereferenceable(224) %0, i32 %1) local_unnamed_addr #4 align 2 {
  %3 = alloca %"class.draco::VertexRingIterator", align 8
  call void @llvm.lifetime.start.p0(i64 24, ptr nonnull %3) #19
  store ptr %0, ptr %3, align 8, !tbaa !156
  %4 = getelementptr inbounds nuw i8, ptr %3, i64 8
  %5 = getelementptr inbounds nuw i8, ptr %0, i64 112
  %6 = zext i32 %1 to i64
  %7 = load ptr, ptr %5, align 8, !tbaa !58
  %8 = getelementptr inbounds nuw %"class.draco::IndexType.30", ptr %7, i64 %6
  %.sroa.0.0.copyload.i.i = load i32, ptr %8, align 4, !tbaa !67
  store i32 %.sroa.0.0.copyload.i.i, ptr %4, align 8
  %9 = getelementptr inbounds nuw i8, ptr %3, i64 12
  store i32 %.sroa.0.0.copyload.i.i, ptr %9, align 4, !tbaa !67
  %10 = getelementptr inbounds nuw i8, ptr %3, i64 16
  store i8 1, ptr %10, align 8, !tbaa !159
  %11 = icmp eq i32 %.sroa.0.0.copyload.i.i, -1
  br i1 %11, label %._crit_edge, label %.lr.ph

.lr.ph:                                           ; preds = %2, %.lr.ph
  %.03 = phi i32 [ %12, %.lr.ph ], [ 0, %2 ]
  %12 = add nuw nsw i32 %.03, 1
  call void @_ZN5draco18VertexRingIteratorINS_24MeshAttributeCornerTableEE4NextEv(ptr noundef nonnull align 8 dereferenceable(17) %3)
  %.pr = load i32, ptr %9, align 4, !tbaa !160
  %13 = icmp eq i32 %.pr, -1
  br i1 %13, label %._crit_edge, label %.lr.ph, !llvm.loop !161

._crit_edge:                                      ; preds = %.lr.ph, %2
  %.0.lcssa = phi i32 [ 0, %2 ], [ %12, %.lr.ph ]
  call void @llvm.lifetime.end.p0(i64 24, ptr nonnull %3) #19
  ret i32 %.0.lcssa
}